target datalayout = "e-m:e-p270:32:32-p271:32:32-p272:64:64-i64:64-i128:128-f80:128-n8:16:32:64-S128"
target triple = "x86_64-pc-linux-gnu"

@.str = private unnamed_addr constant [32 x i8] c"../openssl/crypto/x509/v3_utl.c\00", align 1
@__func__.i2s_ASN1_ENUMERATED = private unnamed_addr constant [20 x i8] c"i2s_ASN1_ENUMERATED\00", align 1

; Function Attrs: nounwind uwtable
define ptr @i2s_ASN1_ENUMERATED(ptr noundef %0, ptr noundef %1) #0 {
  %3 = alloca ptr, align 8
  %4 = alloca ptr, align 8
  %5 = alloca ptr, align 8
  %6 = alloca ptr, align 8
  %7 = alloca ptr, align 8
  %8 = alloca i32, align 4
  store ptr %0, ptr %4, align 8, !tbaa !21
  store ptr %1, ptr %5, align 8, !tbaa !23
  call void @llvm.lifetime.start.p0(i64 8, ptr %6) #8
  store ptr null, ptr %6, align 8, !tbaa !25
  call void @llvm.lifetime.start.p0(i64 8, ptr %7) #8
  store ptr null, ptr %7, align 8, !tbaa !3
  %9 = load ptr, ptr %5, align 8, !tbaa !23
  %10 = icmp ne ptr %9, null
  br i1 %10, label %12, label %11

11:                                               ; preds = %2
  store ptr null, ptr %3, align 8
  store i32 1, ptr %8, align 4
  br label %26

12:                                               ; preds = %2
  %13 = load ptr, ptr %5, align 8, !tbaa !23
  %14 = call ptr @ASN1_ENUMERATED_to_BN(ptr noundef %13, ptr noundef null)
  store ptr %14, ptr %6, align 8, !tbaa !25
  %15 = icmp eq ptr %14, null
  br i1 %15, label %16, label %17

16:                                               ; preds = %12
  call void @ERR_new()
  call void @ERR_set_debug(ptr noundef @.str, i32 noundef 174, ptr noundef @__func__.i2s_ASN1_ENUMERATED)
  call void (i32, i32, ptr, ...) @ERR_set_error(i32 noundef 34, i32 noundef 524301, ptr noundef null)
  br label %23

17:                                               ; preds = %12
  %18 = load ptr, ptr %6, align 8, !tbaa !25
  %19 = call ptr @bignum_to_string(ptr noundef %18)
  store ptr %19, ptr %7, align 8, !tbaa !3
  %20 = icmp eq ptr %19, null
  br i1 %20, label %21, label %22

21:                                               ; preds = %17
  call void @ERR_new()
  call void @ERR_set_debug(ptr noundef @.str, i32 noundef 176, ptr noundef @__func__.i2s_ASN1_ENUMERATED)
  call void (i32, i32, ptr, ...) @ERR_set_error(i32 noundef 34, i32 noundef 524322, ptr noundef null)
  br label %22

22:                                               ; preds = %21, %17
  br label %23

23:                                               ; preds = %22, %16
  %24 = load ptr, ptr %6, align 8, !tbaa !25
  call void @BN_free(ptr noundef %24)
  %25 = load ptr, ptr %7, align 8, !tbaa !3
  store ptr %25, ptr %3, align 8
  store i32 1, ptr %8, align 4
  br label %26

26:                                               ; preds = %23, %11
  call void @llvm.lifetime.end.p0(i64 8, ptr %7) #8
  call void @llvm.lifetime.end.p0(i64 8, ptr %6) #8
  %27 = load ptr, ptr %3, align 8
  ret ptr %27
}