; Function Attrs: nounwind uwtable
define ptr @i2s_ASN1_ENUMERATED(ptr noundef readnone captures(none) %0, ptr noundef %1) local_unnamed_addr #0 {
  %.not = icmp eq ptr %1, null
  br i1 %.not, label %10, label %3

3:                                                ; preds = %2
  %4 = tail call ptr @ASN1_ENUMERATED_to_BN(ptr noundef nonnull %1, ptr noundef null) #12
  %5 = icmp eq ptr %4, null
  br i1 %5, label %.sink.split, label %6

6:                                                ; preds = %3
  %7 = tail call fastcc ptr @bignum_to_string(ptr noundef %4)
  %8 = icmp eq ptr %7, null
  br i1 %8, label %.sink.split, label %9

.sink.split:                                      ; preds = %6, %3
  %.sink10 = phi i32 [ 174, %3 ], [ 176, %6 ]
  %.sink = phi i32 [ 524301, %3 ], [ 524322, %6 ]
  tail call void @ERR_new() #12
  tail call void @ERR_set_debug(ptr noundef nonnull @.str, i32 noundef %.sink10, ptr noundef nonnull @__func__.i2s_ASN1_ENUMERATED) #12
  tail call void (i32, i32, ptr, ...) @ERR_set_error(i32 noundef 34, i32 noundef %.sink, ptr noundef null) #12
  br label %9

9:                                                ; preds = %.sink.split, %6
  %.0 = phi ptr [ %7, %6 ], [ null, %.sink.split ]
  tail call void @BN_free(ptr noundef %4) #12
  br label %10

10:                                               ; preds = %2, %9
  %.06 = phi ptr [ %.0, %9 ], [ null, %2 ]
  ret ptr %.06
}